target datalayout = "e-m:e-p270:32:32-p271:32:32-p272:64:64-i64:64-i128:128-f80:128-n8:16:32:64-S128"
target triple = "x86_64-pc-linux-gnu"

%struct.FLACContext = type { ptr, %struct.FLACStreaminfo, ptr, %struct.GetBitContext, i32, i32, i32, i32, [8 x ptr], ptr, i32, ptr, ptr, i32, i32, %struct.FLACDSPContext }
%struct.FLACStreaminfo = type { i32, i32, i32, i32, i32, i64 }
%struct.GetBitContext = type { ptr, ptr, i32, i32, i32 }
%struct.FLACDSPContext = type { [4 x ptr], ptr, ptr, ptr, ptr, ptr }

@.str.7 = private unnamed_addr constant [30 x i8] c"Assertion %s failed at %s:%d\0A\00", align 1
@.str.8 = private unnamed_addr constant [29 x i8] c"s->stream_info.max_blocksize\00", align 1
@.str.9 = private unnamed_addr constant [21 x i8] c"libavcodec/flacdec.c\00", align 1

; Function Attrs: nounwind uwtable
define internal i32 @allocate_buffers(ptr noundef %0) #1 {
  %2 = alloca i32, align 4
  %3 = alloca ptr, align 8
  %4 = alloca i32, align 4
  %5 = alloca i32, align 4
  %6 = alloca i32, align 4
  store ptr %0, ptr %3, align 8, !tbaa !29
  call void @llvm.lifetime.start.p0(i64 4, ptr %4) #11
  call void @llvm.lifetime.start.p0(i64 4, ptr %5) #11
  br label %7

7:                                                ; preds = %1
  %8 = load ptr, ptr %3, align 8, !tbaa !29
  %9 = getelementptr inbounds nuw %struct.FLACContext, ptr %8, i32 0, i32 1
  %10 = getelementptr inbounds nuw %struct.FLACStreaminfo, ptr %9, i32 0, i32 3
  %11 = load i32, ptr %10, align 4, !tbaa !65
  %12 = icmp ne i32 %11, 0
  br i1 %12, label %14, label %13

13:                                               ; preds = %7
  call void (ptr, i32, ptr, ...) @av_log(ptr noundef null, i32 noundef 0, ptr noundef @.str.7, ptr noundef @.str.8, ptr noundef @.str.9, i32 noundef 142)
  call void @abort() #14
  unreachable

14:                                               ; preds = %7
  br label %15

15:                                               ; preds = %14
  br label %16

16:                                               ; preds = %15
  %17 = load ptr, ptr %3, align 8, !tbaa !29
  %18 = getelementptr inbounds nuw %struct.FLACContext, ptr %17, i32 0, i32 1
  %19 = getelementptr inbounds nuw %struct.FLACStreaminfo, ptr %18, i32 0, i32 1
  %20 = load i32, ptr %19, align 4, !tbaa !41
  %21 = load ptr, ptr %3, align 8, !tbaa !29
  %22 = getelementptr inbounds nuw %struct.FLACContext, ptr %21, i32 0, i32 1
  %23 = getelementptr inbounds nuw %struct.FLACStreaminfo, ptr %22, i32 0, i32 3
  %24 = load i32, ptr %23, align 4, !tbaa !65
  %25 = call i32 @av_samples_get_buffer_size(ptr noundef null, i32 noundef %20, i32 noundef %24, i32 noundef 7, i32 noundef 0)
  store i32 %25, ptr %4, align 4, !tbaa !39
  %26 = load i32, ptr %4, align 4, !tbaa !39
  %27 = icmp slt i32 %26, 0
  br i1 %27, label %28, label %30

28:                                               ; preds = %16
  %29 = load i32, ptr %4, align 4, !tbaa !39
  store i32 %29, ptr %2, align 4
  store i32 1, ptr %6, align 4
  br label %113

30:                                               ; preds = %16
  %31 = load ptr, ptr %3, align 8, !tbaa !29
  %32 = getelementptr inbounds nuw %struct.FLACContext, ptr %31, i32 0, i32 9
  %33 = load ptr, ptr %3, align 8, !tbaa !29
  %34 = getelementptr inbounds nuw %struct.FLACContext, ptr %33, i32 0, i32 10
  %35 = load i32, ptr %4, align 4, !tbaa !39
  %36 = sext i32 %35 to i64
  call void @av_fast_malloc(ptr noundef %32, ptr noundef %34, i64 noundef %36)
  %37 = load ptr, ptr %3, align 8, !tbaa !29
  %38 = getelementptr inbounds nuw %struct.FLACContext, ptr %37, i32 0, i32 9
  %39 = load ptr, ptr %38, align 8, !tbaa !66
  %40 = icmp ne ptr %39, null
  br i1 %40, label %42, label %41

41:                                               ; preds = %30
  store i32 -12, ptr %2, align 4
  store i32 1, ptr %6, align 4
  br label %113

42:                                               ; preds = %30
  %43 = load ptr, ptr %3, align 8, !tbaa !29
  %44 = getelementptr inbounds nuw %struct.FLACContext, ptr %43, i32 0, i32 8
  %45 = getelementptr inbounds [8 x ptr], ptr %44, i64 0, i64 0
  %46 = load ptr, ptr %3, align 8, !tbaa !29
  %47 = getelementptr inbounds nuw %struct.FLACContext, ptr %46, i32 0, i32 9
  %48 = load ptr, ptr %47, align 8, !tbaa !66
  %49 = load ptr, ptr %3, align 8, !tbaa !29
  %50 = getelementptr inbounds nuw %struct.FLACContext, ptr %49, i32 0, i32 1
  %51 = getelementptr inbounds nuw %struct.FLACStreaminfo, ptr %50, i32 0, i32 1
  %52 = load i32, ptr %51, align 4, !tbaa !41
  %53 = load ptr, ptr %3, align 8, !tbaa !29
  %54 = getelementptr inbounds nuw %struct.FLACContext, ptr %53, i32 0, i32 1
  %55 = getelementptr inbounds nuw %struct.FLACStreaminfo, ptr %54, i32 0, i32 3
  %56 = load i32, ptr %55, align 4, !tbaa !65
  %57 = call i32 @av_samples_fill_arrays(ptr noundef %45, ptr noundef null, ptr noundef %48, i32 noundef %52, i32 noundef %56, i32 noundef 7, i32 noundef 0)
  store i32 %57, ptr %5, align 4, !tbaa !39
  %58 = load i32, ptr %5, align 4, !tbaa !39
  %59 = icmp sge i32 %58, 0
  br i1 %59, label %60, label %105

60:                                               ; preds = %42
  %61 = load ptr, ptr %3, align 8, !tbaa !29
  %62 = getelementptr inbounds nuw %struct.FLACContext, ptr %61, i32 0, i32 1
  %63 = getelementptr inbounds nuw %struct.FLACStreaminfo, ptr %62, i32 0, i32 2
  %64 = load i32, ptr %63, align 8, !tbaa !60
  %65 = icmp eq i32 %64, 32
  br i1 %65, label %66, label %105

66:                                               ; preds = %60
  %67 = load ptr, ptr %3, align 8, !tbaa !29
  %68 = getelementptr inbounds nuw %struct.FLACContext, ptr %67, i32 0, i32 1
  %69 = getelementptr inbounds nuw %struct.FLACStreaminfo, ptr %68, i32 0, i32 1
  %70 = load i32, ptr %69, align 4, !tbaa !41
  %71 = icmp eq i32 %70, 2
  br i1 %71, label %72, label %105

72:                                               ; preds = %66
  %73 = load ptr, ptr %3, align 8, !tbaa !29
  %74 = getelementptr inbounds nuw %struct.FLACContext, ptr %73, i32 0, i32 1
  %75 = getelementptr inbounds nuw %struct.FLACStreaminfo, ptr %74, i32 0, i32 3
  %76 = load i32, ptr %75, align 4, !tbaa !65
  %77 = call i32 @av_samples_get_buffer_size(ptr noundef null, i32 noundef 1, i32 noundef %76, i32 noundef 11, i32 noundef 0)
  store i32 %77, ptr %4, align 4, !tbaa !39
  %78 = load i32, ptr %4, align 4, !tbaa !39
  %79 = icmp slt i32 %78, 0
  br i1 %79, label %80, label %82

80:                                               ; preds = %72
  %81 = load i32, ptr %4, align 4, !tbaa !39
  store i32 %81, ptr %2, align 4
  store i32 1, ptr %6, align 4
  br label %113

82:                                               ; preds = %72
  %83 = load ptr, ptr %3, align 8, !tbaa !29
  %84 = getelementptr inbounds nuw %struct.FLACContext, ptr %83, i32 0, i32 12
  %85 = load ptr, ptr %3, align 8, !tbaa !29
  %86 = getelementptr inbounds nuw %struct.FLACContext, ptr %85, i32 0, i32 13
  %87 = load i32, ptr %4, align 4, !tbaa !39
  %88 = sext i32 %87 to i64
  call void @av_fast_malloc(ptr noundef %84, ptr noundef %86, i64 noundef %88)
  %89 = load ptr, ptr %3, align 8, !tbaa !29
  %90 = getelementptr inbounds nuw %struct.FLACContext, ptr %89, i32 0, i32 12
  %91 = load ptr, ptr %90, align 8, !tbaa !67
  %92 = icmp ne ptr %91, null
  br i1 %92, label %94, label %93

93:                                               ; preds = %82
  store i32 -12, ptr %2, align 4
  store i32 1, ptr %6, align 4
  br label %113

94:                                               ; preds = %82
  %95 = load ptr, ptr %3, align 8, !tbaa !29
  %96 = getelementptr inbounds nuw %struct.FLACContext, ptr %95, i32 0, i32 11
  %97 = load ptr, ptr %3, align 8, !tbaa !29
  %98 = getelementptr inbounds nuw %struct.FLACContext, ptr %97, i32 0, i32 12
  %99 = load ptr, ptr %98, align 8, !tbaa !67
  %100 = load ptr, ptr %3, align 8, !tbaa !29
  %101 = getelementptr inbounds nuw %struct.FLACContext, ptr %100, i32 0, i32 1
  %102 = getelementptr inbounds nuw %struct.FLACStreaminfo, ptr %101, i32 0, i32 3
  %103 = load i32, ptr %102, align 4, !tbaa !65
  %104 = call i32 @av_samples_fill_arrays(ptr noundef %96, ptr noundef null, ptr noundef %99, i32 noundef 1, i32 noundef %103, i32 noundef 11, i32 noundef 0)
  store i32 %104, ptr %5, align 4, !tbaa !39
  br label %105

105:                                              ; preds = %94, %66, %60, %42
  %106 = load i32, ptr %5, align 4, !tbaa !39
  %107 = icmp slt i32 %106, 0
  br i1 %107, label %108, label %110

108:                                              ; preds = %105
  %109 = load i32, ptr %5, align 4, !tbaa !39
  br label %111

110:                                              ; preds = %105
  br label %111

111:                                              ; preds = %110, %108
  %112 = phi i32 [ %109, %108 ], [ 0, %110 ]
  store i32 %112, ptr %2, align 4
  store i32 1, ptr %6, align 4
  br label %113

113:                                              ; preds = %111, %93, %80, %41, %28
  call void @llvm.lifetime.end.p0(i64 4, ptr %5) #11
  call void @llvm.lifetime.end.p0(i64 4, ptr %4) #11
  %114 = load i32, ptr %2, align 4
  ret i32 %114
}