; Function Attrs: nounwind uwtable
define internal fastcc range(i32 -2147483648, 1) i32 @allocate_buffers(ptr noundef %0) unnamed_addr #1 {
  %2 = getelementptr inbounds nuw i8, ptr %0, i64 20
  %3 = load i32, ptr %2, align 4, !tbaa !60
  %.not = icmp eq i32 %3, 0
  br i1 %.not, label %4, label %5

4:                                                ; preds = %1
  tail call void (ptr, i32, ptr, ...) @av_log(ptr noundef null, i32 noundef 0, ptr noundef nonnull @.str.7, ptr noundef nonnull @.str.8, ptr noundef nonnull @.str.9, i32 noundef 142) #10
  tail call void @abort() #12
  unreachable

5:                                                ; preds = %1
  %6 = getelementptr inbounds nuw i8, ptr %0, i64 12
  %7 = load i32, ptr %6, align 4, !tbaa !40
  %8 = tail call i32 @av_samples_get_buffer_size(ptr noundef null, i32 noundef %7, i32 noundef %3, i32 noundef 7, i32 noundef 0) #10
  %9 = icmp slt i32 %8, 0
  br i1 %9, label %43, label %10

10:                                               ; preds = %5
  %11 = getelementptr inbounds nuw i8, ptr %0, i64 160
  %12 = getelementptr inbounds nuw i8, ptr %0, i64 168
  %13 = zext nneg i32 %8 to i64
  tail call void @av_fast_malloc(ptr noundef nonnull %11, ptr noundef nonnull %12, i64 noundef %13) #10
  %14 = load ptr, ptr %11, align 8, !tbaa !91
  %.not37 = icmp eq ptr %14, null
  br i1 %.not37, label %43, label %15

15:                                               ; preds = %10
  %16 = getelementptr inbounds nuw i8, ptr %0, i64 96
  %17 = load i32, ptr %6, align 4, !tbaa !40
  %18 = load i32, ptr %2, align 4, !tbaa !60
  %19 = tail call i32 @av_samples_fill_arrays(ptr noundef nonnull %16, ptr noundef null, ptr noundef nonnull %14, i32 noundef %17, i32 noundef %18, i32 noundef 7, i32 noundef 0) #10
  %20 = icmp sgt i32 %19, -1
  br i1 %20, label %21, label %41

21:                                               ; preds = %15
  %22 = getelementptr inbounds nuw i8, ptr %0, i64 16
  %23 = load i32, ptr %22, align 8, !tbaa !37
  %24 = icmp eq i32 %23, 32
  br i1 %24, label %25, label %41

25:                                               ; preds = %21
  %26 = load i32, ptr %6, align 4, !tbaa !40
  %27 = icmp eq i32 %26, 2
  br i1 %27, label %28, label %41

28:                                               ; preds = %25
  %29 = load i32, ptr %2, align 4, !tbaa !60
  %30 = tail call i32 @av_samples_get_buffer_size(ptr noundef null, i32 noundef 1, i32 noundef %29, i32 noundef 11, i32 noundef 0) #10
  %31 = icmp slt i32 %30, 0
  br i1 %31, label %43, label %32

32:                                               ; preds = %28
  %33 = getelementptr inbounds nuw i8, ptr %0, i64 184
  %34 = getelementptr inbounds nuw i8, ptr %0, i64 192
  %35 = zext nneg i32 %30 to i64
  tail call void @av_fast_malloc(ptr noundef nonnull %33, ptr noundef nonnull %34, i64 noundef %35) #10
  %36 = load ptr, ptr %33, align 8, !tbaa !92
  %.not38 = icmp eq ptr %36, null
  br i1 %.not38, label %43, label %37

37:                                               ; preds = %32
  %38 = getelementptr inbounds nuw i8, ptr %0, i64 176
  %39 = load i32, ptr %2, align 4, !tbaa !60
  %40 = tail call i32 @av_samples_fill_arrays(ptr noundef nonnull %38, ptr noundef null, ptr noundef nonnull %36, i32 noundef 1, i32 noundef %39, i32 noundef 11, i32 noundef 0) #10
  br label %41

41:                                               ; preds = %37, %25, %21, %15
  %.0 = phi i32 [ %40, %37 ], [ %19, %25 ], [ %19, %21 ], [ %19, %15 ]
  %42 = tail call i32 @llvm.smin.i32(i32 %.0, i32 0)
  br label %43

43:                                               ; preds = %32, %28, %10, %5, %41
  %.028 = phi i32 [ %42, %41 ], [ %8, %5 ], [ -12, %10 ], [ %30, %28 ], [ -12, %32 ]
  ret i32 %.028
}